target datalayout = "e-m:e-p270:32:32-p271:32:32-p272:64:64-i64:64-i128:128-f80:128-n8:16:32:64-S128"
target triple = "x86_64-pc-linux-gnu"

%struct.hb_ot_map_t = type { [2 x i32], [2 x i8], i32, %struct.hb_vector_t, [2 x %struct.hb_vector_t.0], [2 x %struct.hb_vector_t.1] }
%struct.hb_vector_t = type { i32, i32, ptr }
%struct.hb_vector_t.0 = type { i32, i32, ptr }
%struct.hb_vector_t.1 = type { i32, i32, ptr }
%"struct.hb_ot_map_t::lookup_map_t" = type { i16, i8, i32, i32 }
%struct.hb_sparseset_t = type { %struct.hb_object_header_t, %struct.hb_bit_set_invertible_t }
%struct.hb_object_header_t = type { %struct.hb_reference_count_t, %struct.hb_atomic_int_t, %struct.hb_atomic_ptr_t }
%struct.hb_reference_count_t = type { %struct.hb_atomic_int_t }
%struct.hb_atomic_int_t = type { i32 }
%struct.hb_atomic_ptr_t = type { ptr }
%struct.hb_bit_set_invertible_t = type <{ %struct.hb_bit_set_t, i8, [7 x i8] }>
%struct.hb_bit_set_t = type { i8, i32, %struct.hb_atomic_int_t, %struct.hb_vector_t.2, %struct.hb_vector_t.3 }
%struct.hb_vector_t.2 = type { i32, i32, ptr }
%struct.hb_vector_t.3 = type { i32, i32, ptr }

@_hb_NullPool = external constant [80 x i64], align 16

; Function Attrs: mustprogress nounwind uwtable
define linkonce_odr hidden noundef nonnull align 4 dereferenceable(12) ptr @_ZN4NullIN11hb_ot_map_t12lookup_map_tEE8get_nullEv() #1 comdat align 2 {
  ret ptr @_hb_NullPool
}

; Function Attrs: mustprogress uwtable
define linkonce_odr hidden noundef nonnull align 4 dereferenceable(12) ptr @_ZN10NullHelperIN11hb_ot_map_t12lookup_map_tEE8get_nullEv() #0 comdat align 2 {
  %1 = call noundef nonnull align 4 dereferenceable(12) ptr @_ZN4NullIN11hb_ot_map_t12lookup_map_tEE8get_nullEv()
  ret ptr %1
}

; Function Attrs: mustprogress uwtable
define linkonce_odr hidden void @_ZN14hb_sparseset_tI23hb_bit_set_invertible_tE3addEj(ptr noundef nonnull align 8 dereferenceable(72) %0, i32 noundef %1) #0 comdat align 2 {
  %3 = alloca ptr, align 8
  %4 = alloca i32, align 4
  store ptr %0, ptr %3, align 8
  store i32 %1, ptr %4, align 4
  %5 = load ptr, ptr %3, align 8
  %6 = getelementptr inbounds %struct.hb_sparseset_t, ptr %5, i32 0, i32 1
  %7 = load i32, ptr %4, align 4
  call void @_ZN23hb_bit_set_invertible_t3addEj(ptr noundef nonnull align 8 dereferenceable(49) %6, i32 noundef %7)
  ret void
}

; Function Attrs: mustprogress uwtable
define linkonce_odr hidden noundef nonnull align 4 dereferenceable(12) ptr @_ZNK11hb_vector_tIN11hb_ot_map_t12lookup_map_tELb0EEixEi(ptr noundef nonnull align 8 dereferenceable(16) %0, i32 noundef %1) #0 comdat align 2 {
  %3 = alloca ptr, align 8
  %4 = alloca ptr, align 8
  %5 = alloca i32, align 4
  %6 = alloca i32, align 4
  store ptr %0, ptr %4, align 8
  store i32 %1, ptr %5, align 4
  %7 = load ptr, ptr %4, align 8
  %8 = load i32, ptr %5, align 4
  store i32 %8, ptr %6, align 4
  %9 = load i32, ptr %6, align 4
  %10 = getelementptr inbounds %struct.hb_vector_t.0, ptr %7, i32 0, i32 1
  %11 = load i32, ptr %10, align 4
  %12 = icmp uge i32 %9, %11
  br i1 %12, label %13, label %15

13:                                               ; preds = %2
  %14 = call noundef nonnull align 4 dereferenceable(12) ptr @_ZN10NullHelperIN11hb_ot_map_t12lookup_map_tEE8get_nullEv()
  store ptr %14, ptr %3, align 8
  br label %21

15:                                               ; preds = %2
  %16 = getelementptr inbounds %struct.hb_vector_t.0, ptr %7, i32 0, i32 2
  %17 = load ptr, ptr %16, align 8
  %18 = load i32, ptr %6, align 4
  %19 = zext i32 %18 to i64
  %20 = getelementptr inbounds %"struct.hb_ot_map_t::lookup_map_t", ptr %17, i64 %19
  store ptr %20, ptr %3, align 8
  br label %21

21:                                               ; preds = %15, %13
  %22 = load ptr, ptr %3, align 8
  ret ptr %22
}

; Function Attrs: mustprogress uwtable
define hidden void @_ZNK11hb_ot_map_t15collect_lookupsEjP8hb_set_t(ptr noundef nonnull align 8 dereferenceable(96) %0, i32 noundef %1, ptr noundef %2) #0 align 2 {
  %4 = alloca ptr, align 8
  %5 = alloca i32, align 4
  %6 = alloca ptr, align 8
  %7 = alloca i32, align 4
  store ptr %0, ptr %4, align 8
  store i32 %1, ptr %5, align 4
  store ptr %2, ptr %6, align 8
  %8 = load ptr, ptr %4, align 8
  store i32 0, ptr %7, align 4
  br label %9

9:                                                ; preds = %29, %3
  %10 = load i32, ptr %7, align 4
  %11 = getelementptr inbounds %struct.hb_ot_map_t, ptr %8, i32 0, i32 4
  %12 = load i32, ptr %5, align 4
  %13 = zext i32 %12 to i64
  %14 = getelementptr inbounds [2 x %struct.hb_vector_t.0], ptr %11, i64 0, i64 %13
  %15 = getelementptr inbounds %struct.hb_vector_t.0, ptr %14, i32 0, i32 1
  %16 = load i32, ptr %15, align 4
  %17 = icmp ult i32 %10, %16
  br i1 %17, label %18, label %32

18:                                               ; preds = %9
  %19 = load ptr, ptr %6, align 8
  %20 = getelementptr inbounds %struct.hb_ot_map_t, ptr %8, i32 0, i32 4
  %21 = load i32, ptr %5, align 4
  %22 = zext i32 %21 to i64
  %23 = getelementptr inbounds [2 x %struct.hb_vector_t.0], ptr %20, i64 0, i64 %22
  %24 = load i32, ptr %7, align 4
  %25 = call noundef nonnull align 4 dereferenceable(12) ptr @_ZNK11hb_vector_tIN11hb_ot_map_t12lookup_map_tELb0EEixEi(ptr noundef nonnull align 8 dereferenceable(16) %23, i32 noundef %24)
  %26 = getelementptr inbounds %"struct.hb_ot_map_t::lookup_map_t", ptr %25, i32 0, i32 0
  %27 = load i16, ptr %26, align 4
  %28 = zext i16 %27 to i32
  call void @_ZN14hb_sparseset_tI23hb_bit_set_invertible_tE3addEj(ptr noundef nonnull align 8 dereferenceable(72) %19, i32 noundef %28)
  br label %29

29:                                               ; preds = %18
  %30 = load i32, ptr %7, align 4
  %31 = add i32 %30, 1
  store i32 %31, ptr %7, align 4
  br label %9, !llvm.loop !6

32:                                               ; preds = %9
  ret void
}