; Function Attrs: mustprogress uwtable
define hidden void @_ZNK11hb_ot_map_t15collect_lookupsEjP8hb_set_t(ptr nocapture noundef nonnull readonly align 8 dereferenceable(96) %0, i32 noundef %1, ptr noundef %2) local_unnamed_addr #0 align 2 {
  %4 = getelementptr inbounds i8, ptr %0, i64 32
  %5 = zext i32 %1 to i64
  %6 = getelementptr inbounds [2 x %struct.hb_vector_t.0], ptr %4, i64 0, i64 %5
  %7 = getelementptr inbounds i8, ptr %6, i64 4
  %8 = load i32, ptr %7, align 4
  %.not = icmp eq i32 %8, 0
  br i1 %.not, label %._crit_edge, label %.lr.ph

.lr.ph:                                           ; preds = %3
  %9 = getelementptr inbounds i8, ptr %6, i64 8
  %10 = getelementptr inbounds i8, ptr %2, i64 16
  br label %11

11:                                               ; preds = %.lr.ph, %11
  %indvars.iv = phi i64 [ 0, %.lr.ph ], [ %indvars.iv.next, %11 ]
  %12 = load ptr, ptr %9, align 8
  %13 = getelementptr inbounds %"struct.hb_ot_map_t::lookup_map_t", ptr %12, i64 %indvars.iv
  %14 = load i16, ptr %13, align 4
  %15 = zext i16 %14 to i32
  tail call void @_ZN23hb_bit_set_invertible_t3addEj(ptr noundef nonnull align 8 dereferenceable(49) %10, i32 noundef %15)
  %indvars.iv.next = add nuw nsw i64 %indvars.iv, 1
  %16 = load i32, ptr %7, align 4
  %17 = zext i32 %16 to i64
  %18 = icmp ult i64 %indvars.iv.next, %17
  br i1 %18, label %11, label %._crit_edge, !llvm.loop !6

._crit_edge:                                      ; preds = %11, %3
  ret void
}